; Function Attrs: mustprogress uwtable
define hidden void @_ZN14duckdb_mbedtls14MbedTlsWrapper17ComputeSha256HashERKNSt7__cxx1112basic_stringIcSt11char_traitsIcESaIcEEE(ptr dead_on_unwind noalias nonnull writable sret(%"class.std::__cxx11::basic_string") align 8 %0, ptr noundef nonnull readonly align 8 captures(none) dereferenceable(32) %1) local_unnamed_addr #0 align 2 personality ptr @__gxx_personality_v0 {
  %3 = getelementptr inbounds nuw i8, ptr %0, i64 16
  store ptr %3, ptr %0, align 8, !tbaa !3
  %4 = getelementptr inbounds nuw i8, ptr %0, i64 8
  store i64 0, ptr %4, align 8, !tbaa !9
  store i8 0, ptr %3, align 8, !tbaa !12
  invoke void @_ZNSt7__cxx1112basic_stringIcSt11char_traitsIcESaIcEE6resizeEmc(ptr noundef nonnull align 8 dereferenceable(32) %0, i64 noundef 32, i8 noundef signext 0)
          to label %_ZNSt7__cxx1112basic_stringIcSt11char_traitsIcESaIcEE6resizeEm.exit unwind label %9

_ZNSt7__cxx1112basic_stringIcSt11char_traitsIcESaIcEE6resizeEm.exit: ; preds = %2
  %5 = load ptr, ptr %1, align 8, !tbaa !13
  %6 = getelementptr inbounds nuw i8, ptr %1, i64 8
  %7 = load i64, ptr %6, align 8, !tbaa !9
  %8 = load ptr, ptr %0, align 8, !tbaa !13
  invoke void @_ZN14duckdb_mbedtls14MbedTlsWrapper17ComputeSha256HashEPKcmPc(ptr noundef %5, i64 noundef %7, ptr noundef %8)
          to label %15 unwind label %9

9:                                                ; preds = %2, %_ZNSt7__cxx1112basic_stringIcSt11char_traitsIcESaIcEE6resizeEm.exit
  %10 = landingpad { ptr, i32 }
          cleanup
  %11 = load ptr, ptr %0, align 8, !tbaa !13
  %12 = icmp eq ptr %11, %3
  br i1 %12, label %_ZNKSt7__cxx1112basic_stringIcSt11char_traitsIcESaIcEE11_M_is_localEv.exit.thread.i.i, label %_ZNKSt7__cxx1112basic_stringIcSt11char_traitsIcESaIcEE11_M_is_localEv.exit.i.i

_ZNKSt7__cxx1112basic_stringIcSt11char_traitsIcESaIcEE11_M_is_localEv.exit.thread.i.i: ; preds = %9
  %13 = load i64, ptr %4, align 8, !tbaa !9
  %14 = icmp ult i64 %13, 16
  tail call void @llvm.assume(i1 %14)
  br label %_ZNSt7__cxx1112basic_stringIcSt11char_traitsIcESaIcEED2Ev.exit

_ZNKSt7__cxx1112basic_stringIcSt11char_traitsIcESaIcEE11_M_is_localEv.exit.i.i: ; preds = %9
  tail call void @_ZdlPv(ptr noundef %11) #21
  br label %_ZNSt7__cxx1112basic_stringIcSt11char_traitsIcESaIcEED2Ev.exit

_ZNSt7__cxx1112basic_stringIcSt11char_traitsIcESaIcEED2Ev.exit: ; preds = %_ZNKSt7__cxx1112basic_stringIcSt11char_traitsIcESaIcEE11_M_is_localEv.exit.thread.i.i, %_ZNKSt7__cxx1112basic_stringIcSt11char_traitsIcESaIcEE11_M_is_localEv.exit.i.i
  resume { ptr, i32 } %10

15:                                               ; preds = %_ZNSt7__cxx1112basic_stringIcSt11char_traitsIcESaIcEE6resizeEm.exit
  ret void
}